; ModuleID = 'source-C-CXX/36/609.c'
source_filename = "source-C-CXX/36/609.c"
target datalayout = "e-m:e-p270:32:32-p271:32:32-p272:64:64-i64:64-f80:128-n8:16:32:64-S128"
target triple = "x86_64-pc-linux-gnu"

@.str = private unnamed_addr constant [3 x i8] c"%d\00", align 1
@.str.1 = private unnamed_addr constant [3 x i8] c"%s\00", align 1
@.str.4 = private unnamed_addr constant [4 x i8] c"%c\0A\00", align 1
@str = private unnamed_addr constant [3 x i8] c"no\00", align 1

; Function Attrs: nofree nounwind sspstrong uwtable
define dso_local void @main() local_unnamed_addr #0 {
  %1 = alloca i32, align 4
  %2 = alloca [100000 x i8], align 16
  %3 = bitcast i32* %1 to i8*
  call void @llvm.lifetime.start.p0i8(i64 4, i8* nonnull %3) #5
  %4 = getelementptr inbounds [100000 x i8], [100000 x i8]* %2, i64 0, i64 0
  call void @llvm.lifetime.start.p0i8(i64 100000, i8* nonnull %4) #5
  %5 = call i32 (i8*, ...) @__isoc99_scanf(i8* getelementptr inbounds ([3 x i8], [3 x i8]* @.str, i64 0, i64 0), i32* nonnull %1)
  %6 = load i32, i32* %1, align 4, !tbaa !5
  %7 = icmp slt i32 %6, 1
  br i1 %7, label %57, label %8

8:                                                ; preds = %0, %53
  %9 = phi i32 [ %54, %53 ], [ 1, %0 ]
  %10 = call i32 (i8*, ...) @__isoc99_scanf(i8* getelementptr inbounds ([3 x i8], [3 x i8]* @.str.1, i64 0, i64 0), [100000 x i8]* nonnull %2)
  %11 = call i64 @strlen(i8* noundef nonnull %4) #6
  %12 = trunc i64 %11 to i32
  %13 = icmp eq i32 %12, 1
  br i1 %13, label %14, label %16

14:                                               ; preds = %8
  %15 = call i32 @puts(i8* nonnull %4)
  br label %18

16:                                               ; preds = %8
  %17 = icmp sgt i32 %12, 0
  br i1 %17, label %18, label %45

18:                                               ; preds = %14, %16
  %19 = and i64 %11, 4294967295
  br label %20

20:                                               ; preds = %18, %34
  %21 = phi i64 [ 0, %18 ], [ %35, %34 ]
  %22 = getelementptr inbounds [100000 x i8], [100000 x i8]* %2, i64 0, i64 %21
  %23 = load i8, i8* %22, align 1, !tbaa !9
  br label %24

24:                                               ; preds = %20, %37
  %25 = phi i64 [ 0, %20 ], [ %39, %37 ]
  %26 = phi i32 [ 0, %20 ], [ %38, %37 ]
  %27 = getelementptr inbounds [100000 x i8], [100000 x i8]* %2, i64 0, i64 %25
  %28 = load i8, i8* %27, align 1, !tbaa !9
  %29 = icmp eq i8 %23, %28
  %30 = icmp eq i64 %21, %25
  %31 = select i1 %29, i1 true, i1 %30
  %32 = xor i1 %31, true
  %33 = select i1 %32, i1 true, i1 %30
  br i1 %33, label %37, label %34

34:                                               ; preds = %24, %41
  %35 = add nuw nsw i64 %21, 1
  %36 = icmp eq i64 %35, %19
  br i1 %36, label %44, label %20, !llvm.loop !10

37:                                               ; preds = %24
  %38 = select i1 %31, i32 %26, i32 1
  %39 = add nuw nsw i64 %25, 1
  %40 = icmp eq i64 %39, %19
  br i1 %40, label %41, label %24, !llvm.loop !12

41:                                               ; preds = %37
  %42 = icmp eq i32 %38, 1
  br i1 %42, label %43, label %34

43:                                               ; preds = %41
  br i1 %13, label %53, label %47

44:                                               ; preds = %34
  br i1 %13, label %53, label %45

45:                                               ; preds = %16, %44
  %46 = call i32 @puts(i8* nonnull dereferenceable(1) getelementptr inbounds ([3 x i8], [3 x i8]* @str, i64 0, i64 0)) #5
  br label %53

47:                                               ; preds = %43
  %48 = and i64 %21, 4294967295
  %49 = getelementptr inbounds [100000 x i8], [100000 x i8]* %2, i64 0, i64 %48
  %50 = load i8, i8* %49, align 1, !tbaa !9
  %51 = sext i8 %50 to i32
  %52 = call i32 (i8*, ...) @printf(i8* nonnull dereferenceable(1) getelementptr inbounds ([4 x i8], [4 x i8]* @.str.4, i64 0, i64 0), i32 %51) #5
  br label %53

53:                                               ; preds = %47, %45, %43, %44
  %54 = add nuw nsw i32 %9, 1
  %55 = load i32, i32* %1, align 4, !tbaa !5
  %56 = icmp slt i32 %9, %55
  br i1 %56, label %8, label %57, !llvm.loop !13

57:                                               ; preds = %53, %0
  call void @llvm.lifetime.end.p0i8(i64 100000, i8* nonnull %4) #5
  call void @llvm.lifetime.end.p0i8(i64 4, i8* nonnull %3) #5
  ret void
}

; Function Attrs: argmemonly mustprogress nofree nosync nounwind willreturn
declare void @llvm.lifetime.start.p0i8(i64 immarg, i8* nocapture) #1

; Function Attrs: nofree nounwind
declare noundef i32 @__isoc99_scanf(i8* nocapture noundef readonly, ...) local_unnamed_addr #2

; Function Attrs: argmemonly mustprogress nofree nounwind readonly willreturn
declare i64 @strlen(i8* nocapture) local_unnamed_addr #3

; Function Attrs: nofree nounwind
declare noundef i32 @printf(i8* nocapture noundef readonly, ...) local_unnamed_addr #2

; Function Attrs: nofree nounwind sspstrong uwtable
define dso_local void @yesorno(i32 %0, i32 %1) local_unnamed_addr #0 {
  %3 = icmp eq i32 %0, 0
  br i1 %3, label %4, label %6

4:                                                ; preds = %2
  %5 = tail call i32 @puts(i8* nonnull dereferenceable(1) getelementptr inbounds ([3 x i8], [3 x i8]* @str, i64 0, i64 0))
  br label %8

6:                                                ; preds = %2
  %7 = tail call i32 (i8*, ...) @printf(i8* nonnull dereferenceable(1) getelementptr inbounds ([4 x i8], [4 x i8]* @.str.4, i64 0, i64 0), i32 %1)
  br label %8

8:                                                ; preds = %6, %4
  ret void
}

; Function Attrs: argmemonly mustprogress nofree nosync nounwind willreturn
declare void @llvm.lifetime.end.p0i8(i64 immarg, i8* nocapture) #1

; Function Attrs: nofree nounwind
declare noundef i32 @puts(i8* nocapture noundef readonly) local_unnamed_addr #4


!llvm.module.flags = !{!0, !1, !2, !3}
!llvm.ident = !{!4}

!0 = !{i32 1, !"wchar_size", i32 4}
!1 = !{i32 7, !"PIC Level", i32 2}
!2 = !{i32 7, !"PIE Level", i32 2}
!3 = !{i32 7, !"uwtable", i32 1}
!4 = !{!"clang version 13.0.0"}
!5 = !{!6, !6, i64 0}
!6 = !{!"int", !7, i64 0}
!7 = !{!"omnipotent char", !8, i64 0}
!8 = !{!"Simple C/C++ TBAA"}
!9 = !{!7, !7, i64 0}
!10 = distinct !{!10, !11}
!11 = !{!"llvm.loop.mustprogress"}
!12 = distinct !{!12, !11}
!13 = distinct !{!13, !11}
